Certificate:
    Data:
        Version: 1 (0x0)
        Serial Number: 1 (0x1)
        Signature Algorithm: md5WithRSAEncryption
        Issuer: C=US, ST=CA, O=Open vSwitch, OU=switchca, CN=OVS switchca CA Certificate (2010 Jan 06 17:08:30)
        Validity
            Not Before: Jan  7 01:08:32 2010 GMT
            Not After : Jan  7 01:08:32 2016 GMT
        Subject: C=US, ST=CA, O=Open vSwitch, OU=switchca, CN=OVS switchca CA Certificate (2010 Jan 06 17:08:30)
        Subject Public Key Info:
            Public Key Algorithm: rsaEncryption
            RSA Public Key: (2048 bit)
                Modulus (2048 bit):
                    00:cc:b2:25:ba:07:b8:d6:e1:23:20:1e:41:a1:49:
                    35:68:09:71:19:ef:68:a0:45:e0:bd:33:41:0d:2b:
                    b7:7d:33:16:57:d4:16:da:ba:a0:7e:ae:9c:76:5b:
                    92:93:96:a9:5b:bd:6f:b3:fd:6a:62:b9:10:46:98:
                    d9:b4:ea:ab:99:f3:72:4b:d1:11:81:77:75:09:be:
                    fd:9f:55:f7:6c:78:0a:b1:9d:f8:c5:c5:a0:de:05:
                    0d:78:62:66:ed:b1:0f:b3:9a:69:fd:13:9f:43:a7:
                    aa:e4:3c:a1:63:68:46:c2:a1:56:56:eb:62:b5:0e:
                    2b:be:7b:8e:c9:aa:c2:6f:04:af:7b:5a:ed:4b:16:
                    fb:47:4d:45:81:d8:b8:2e:08:21:a7:4d:cc:78:9b:
                    b0:b0:a0:18:91:53:ab:64:c3:eb:66:74:93:cc:8a:
                    b4:40:c5:4e:2e:cc:c5:63:c0:6b:2d:6e:cd:b9:1c:
                    a9:45:ad:82:0a:d2:1f:5d:84:bc:29:a1:82:0d:75:
                    1c:1a:21:8b:15:03:88:94:e5:89:ed:48:22:e0:7e:
                    b9:15:f1:13:fb:6c:a2:48:c7:2d:e5:01:04:b7:23:
                    6a:06:45:7b:e3:14:59:ac:1d:87:e6:a5:ec:7c:86:
                    80:17:64:71:a0:43:27:27:f5:2c:bd:34:60:c7:a1:
                    22:3f
                Exponent: 65537 (0x10001)
    Signature Algorithm: md5WithRSAEncryption
        c7:85:13:17:b6:ca:c8:1b:8a:8e:eb:3b:64:05:e4:d5:a2:2c:
        6b:ee:83:d8:e0:67:f9:99:59:15:59:9d:6d:16:c0:6b:c3:ed:
        61:31:0a:40:1b:63:1d:57:a5:67:3d:46:55:6b:9f:ed:18:79:
        45:fc:db:d9:48:d2:86:0f:aa:e0:43:18:3f:f4:e3:71:a3:28:
        d4:00:ae:7c:0e:91:2c:5b:5b:ff:be:ad:b6:4b:b7:0e:e3:ea:
        7a:66:69:6c:83:90:0c:59:c1:d7:4d:1a:b9:69:0d:ac:6e:07:
        b3:42:3c:3e:54:ac:85:c5:58:67:51:2a:c0:05:1f:70:6a:07:
        86:2c:42:56:ee:3b:69:7b:db:35:e6:c6:5b:eb:25:66:ca:89:
        bb:d7:37:ae:d2:b9:e8:56:38:a2:ec:ff:45:38:97:ae:43:20:
        c8:55:c9:c8:0f:45:37:70:97:b9:8a:2e:56:52:6f:20:f3:08:
        b7:1a:26:98:b9:d9:7d:52:69:b3:95:2b:c5:4e:0c:7b:fd:cd:
        6a:a2:23:cf:eb:ee:de:74:17:0b:cc:a3:91:f1:41:0b:1e:94:
        e2:ea:52:85:c1:3d:de:f9:e6:44:5a:f6:fe:7d:2f:fb:6f:60:
        89:2c:f0:0c:c7:c7:fb:6f:23:4d:a1:18:89:28:ea:61:f4:3a:
        9d:ca:1f:60
-----BEGIN CERTIFICATE-----
MIIDeDCCAmACAQEwDQYJKoZIhvcNAQEEBQAwgYExCzAJBgNVBAYTAlVTMQswCQYD
VQQIEwJDQTEVMBMGA1UEChMMT3BlbiB2U3dpdGNoMREwDwYDVQQLEwhzd2l0Y2hj
YTE7MDkGA1UEAxMyT1ZTIHN3aXRjaGNhIENBIENlcnRpZmljYXRlICgyMDEwIEph
biAwNiAxNzowODozMCkwHhcNMTAwMTA3MDEwODMyWhcNMTYwMTA3MDEwODMyWjCB
gTELMAkGA1UEBhMCVVMxCzAJBgNVBAgTAkNBMRUwEwYDVQQKEwxPcGVuIHZTd2l0
Y2gxETAPBgNVBAsTCHN3aXRjaGNhMTswOQYDVQQDEzJPVlMgc3dpdGNoY2EgQ0Eg
Q2VydGlmaWNhdGUgKDIwMTAgSmFuIDA2IDE3OjA4OjMwKTCCASIwDQYJKoZIhvcN
AQEBBQADggEPADCCAQoCggEBAMyyJboHuNbhIyAeQaFJNWgJcRnvaKBF4L0zQQ0r
t30zFlfUFtq6oH6unHZbkpOWqVu9b7P9amK5EEaY2bTqq5nzckvREYF3dQm+/Z9V
92x4CrGd+MXFoN4FDXhiZu2xD7Oaaf0Tn0OnquQ8oWNoRsKhVlbrYrUOK757jsmq
wm8Er3ta7UsW+0dNRYHYuC4IIadNzHibsLCgGJFTq2TD62Z0k8yKtEDFTi7MxWPA
ay1uzbkcqUWtggrSH12EvCmhgg11HBohixUDiJTlie1IIuB+uRXxE/tsokjHLeUB
BLcjagZFe+MUWawdh+al7HyGgBdkcaBDJyf1LL00YMehIj8CAwEAATANBgkqhkiG
9w0BAQQFAAOCAQEAx4UTF7bKyBuKjus7ZAXk1aIsa+6D2OBn+ZlZFVmdbRbAa8Pt
YTEKQBtjHVelZz1GVWuf7Rh5Rfzb2UjShg+q4EMYP/TjcaMo1ACufA6RLFtb/76t
tku3DuPqemZpbIOQDFnB100auWkNrG4Hs0I8PlSshcVYZ1EqwAUfcGoHhixCVu47
aXvbNebGW+slZsqJu9c3rtK56FY4ouz/RTiXrkMgyFXJyA9FN3CXuYouVlJvIPMI
txommLnZfVJps5UrxU4Me/3NaqIjz+vu3nQXC8yjkfFBCx6U4upShcE93vnmRFr2
/n0v+29giSzwDMfH+28jTaEYiSjqYfQ6ncofYA==
-----END CERTIFICATE-----
