Certificate:
    Data:
        Version: 1 (0x0)
        Serial Number: 2 (0x2)
        Signature Algorithm: md5WithRSAEncryption
        Issuer: C=US, ST=CA, O=Open vSwitch, OU=switchca, CN=OVS switchca CA Certificate (2010 Jan 06 17:08:30)
        Validity
            Not Before: Jan  7 01:08:59 2010 GMT
            Not After : Jan  7 01:08:59 2011 GMT
        Subject: C=US, ST=CA, O=Open vSwitch, OU=Open vSwitch certifier, CN=Open vSwitch certificate for testpki
        Subject Public Key Info:
            Public Key Algorithm: rsaEncryption
            RSA Public Key: (2048 bit)
                Modulus (2048 bit):
                    00:ac:3f:c6:b1:ef:a3:e3:68:98:2c:91:a1:3a:21:
                    02:38:87:5b:75:7a:1c:17:c9:b0:64:a9:f7:80:17:
                    08:0f:b5:25:b4:46:80:6b:7e:92:ab:f8:93:05:17:
                    77:e4:12:86:eb:54:5d:a7:a0:45:70:16:5e:d7:4f:
                    6b:7c:9f:fe:83:a4:c1:62:83:33:71:6f:4f:4e:68:
                    84:a6:92:a5:77:8f:ad:cd:ee:bf:61:72:24:c0:64:
                    df:73:98:de:37:6b:b8:4d:78:f4:ba:06:95:64:ef:
                    82:b1:2f:71:01:44:ca:3c:de:fa:32:28:b6:ea:72:
                    7b:4d:d6:a0:fb:4b:73:de:a9:7f:25:ad:20:02:3d:
                    5f:7f:7f:8e:91:34:97:0a:10:96:be:3d:ee:37:5b:
                    a9:91:9e:7f:d5:ac:7b:e3:56:47:a4:14:15:dd:48:
                    ce:32:6f:c4:83:09:07:31:bb:34:77:4d:f7:12:70:
                    86:b8:b2:64:16:3b:ea:d2:72:e0:73:6b:6f:ce:59:
                    cf:56:6d:a8:94:3c:10:d7:47:7e:b2:91:9d:c7:65:
                    23:8a:b1:ca:9c:15:36:c5:d9:db:b1:e7:b8:1f:09:
                    20:1d:da:97:de:93:7c:e2:5d:94:ea:38:d8:ce:60:
                    c9:9e:43:da:6d:9d:c9:d2:a0:e9:6d:5a:9b:57:53:
                    86:7d
                Exponent: 65537 (0x10001)
    Signature Algorithm: md5WithRSAEncryption
        19:a9:2a:66:fc:09:78:c9:87:e6:73:be:9a:d2:b7:87:07:7b:
        93:70:04:cd:f2:c9:47:a3:8f:9f:c4:af:92:ef:cf:07:d3:83:
        90:f7:8a:f0:55:f6:8a:2e:af:57:b9:e4:9c:72:37:b7:af:12:
        fb:dc:07:9b:94:7b:18:c8:53:86:6d:02:77:eb:e3:ac:21:e1:
        6d:b5:fe:04:6b:a1:d2:78:a6:58:4b:5d:a7:17:e1:3b:d9:94:
        ab:81:5e:c1:9a:b5:34:a5:a7:9a:2b:1b:74:d7:a4:aa:fa:81:
        5c:e5:5f:1a:07:54:36:21:76:04:a9:5e:11:38:46:b8:1c:11:
        15:78:f8:0c:31:8d:9a:a3:e4:d0:72:a8:29:80:c2:3d:9d:f6:
        61:dd:ca:c9:6c:7e:ca:c0:0d:61:28:4d:3e:ea:51:9d:c2:c4:
        7c:47:da:cc:24:35:9c:2a:0d:ac:ea:5f:33:5a:ab:b7:94:cb:
        3f:91:38:92:a3:62:3b:40:ef:79:55:96:b3:24:5a:19:a2:53:
        99:63:f9:85:d4:b6:48:b8:9a:f8:bc:b7:74:f8:cf:95:dc:1a:
        f2:66:cd:2b:4b:d4:c1:19:69:77:f9:f6:08:04:61:cd:80:ee:
        46:44:27:82:49:60:a9:be:4b:51:75:ca:15:16:0b:97:c2:2f:
        26:f2:dd:42
-----BEGIN CERTIFICATE-----
MIIDeDCCAmACAQIwDQYJKoZIhvcNAQEEBQAwgYExCzAJBgNVBAYTAlVTMQswCQYD
VQQIEwJDQTEVMBMGA1UEChMMT3BlbiB2U3dpdGNoMREwDwYDVQQLEwhzd2l0Y2hj
YTE7MDkGA1UEAxMyT1ZTIHN3aXRjaGNhIENBIENlcnRpZmljYXRlICgyMDEwIEph
biAwNiAxNzowODozMCkwHhcNMTAwMTA3MDEwODU5WhcNMTEwMTA3MDEwODU5WjCB
gTELMAkGA1UEBhMCVVMxCzAJBgNVBAgTAkNBMRUwEwYDVQQKEwxPcGVuIHZTd2l0
Y2gxHzAdBgNVBAsTFk9wZW4gdlN3aXRjaCBjZXJ0aWZpZXIxLTArBgNVBAMTJE9w
ZW4gdlN3aXRjaCBjZXJ0aWZpY2F0ZSBmb3IgdGVzdHBraTCCASIwDQYJKoZIhvcN
AQEBBQADggEPADCCAQoCggEBAKw/xrHvo+NomCyRoTohAjiHW3V6HBfJsGSp94AX
CA+1JbRGgGt+kqv4kwUXd+QShutUXaegRXAWXtdPa3yf/oOkwWKDM3FvT05ohKaS
pXePrc3uv2FyJMBk33OY3jdruE149LoGlWTvgrEvcQFEyjze+jIotupye03WoPtL
c96pfyWtIAI9X39/jpE0lwoQlr497jdbqZGef9Wse+NWR6QUFd1IzjJvxIMJBzG7
NHdN9xJwhriyZBY76tJy4HNrb85Zz1ZtqJQ8ENdHfrKRncdlI4qxypwVNsXZ27Hn
uB8JIB3al96TfOJdlOo42M5gyZ5D2m2dydKg6W1am1dThn0CAwEAATANBgkqhkiG
9w0BAQQFAAOCAQEAGakqZvwJeMmH5nO+mtK3hwd7k3AEzfLJR6OPn8Svku/PB9OD
kPeK8FX2ii6vV7nknHI3t68S+9wHm5R7GMhThm0Cd+vjrCHhbbX+BGuh0nimWEtd
pxfhO9mUq4FewZq1NKWnmisbdNekqvqBXOVfGgdUNiF2BKleEThGuBwRFXj4DDGN
mqPk0HKoKYDCPZ32Yd3KyWx+ysANYShNPupRncLEfEfazCQ1nCoNrOpfM1qrt5TL
P5E4kqNiO0DveVWWsyRaGaJTmWP5hdS2SLia+Ly3dPjPldwa8mbNK0vUwRlpd/n2
CARhzYDuRkQngklgqb5LUXXKFRYLl8IvJvLdQg==
-----END CERTIFICATE-----
