Certificate Request:
    Data:
        Version: 0 (0x0)
        Subject: C=US, ST=CA, L=Palo Alto, O=Open vSwitch, OU=Open vSwitch certifier, CN=Open vSwitch certificate for testpki2
        Subject Public Key Info:
            Public Key Algorithm: rsaEncryption
            RSA Public Key: (2048 bit)
                Modulus (2048 bit):
                    00:b0:0a:97:1e:d8:48:76:57:32:e6:4d:d7:84:86:
                    7a:d8:0c:b7:a4:13:9c:23:bc:d5:01:94:10:81:f7:
                    5f:b7:70:ba:1e:85:c6:5c:72:ca:cc:2a:d5:fe:cc:
                    94:0b:54:5e:ae:40:fd:d9:c1:cc:8b:58:7e:87:73:
                    5e:ac:98:17:f2:93:b4:cd:d7:dd:12:59:b7:8e:31:
                    d8:63:c9:7a:14:27:f6:67:64:cb:8f:b1:d4:c1:3c:
                    be:30:e2:08:1e:e2:db:12:9b:23:53:9f:6b:46:9b:
                    08:46:80:6f:89:f5:77:88:b8:e0:48:89:be:0e:47:
                    c5:5e:64:28:7e:c3:f3:10:cb:e2:95:20:6a:81:7a:
                    14:e3:8f:e8:b8:d3:f9:31:b2:98:0c:a6:5e:9f:ea:
                    25:89:34:22:f2:fc:a1:5d:2b:2d:0a:40:85:7a:ff:
                    4f:5e:5a:51:72:f2:b8:03:17:db:d2:3e:40:7f:1b:
                    6b:f1:ad:e8:ae:d3:33:d4:ad:9c:05:d4:b1:1f:53:
                    1d:45:18:50:31:28:88:56:93:a7:f9:b2:cd:90:d5:
                    91:dc:14:a9:33:2d:0b:8c:74:7d:94:1e:be:58:d7:
                    fe:1e:6d:a5:a5:3b:e2:66:f0:06:f9:d9:5c:2c:66:
                    fb:7b:85:38:13:65:ff:38:ba:1b:59:f4:08:a0:49:
                    03:3f
                Exponent: 65537 (0x10001)
        Attributes:
            a0:00
    Signature Algorithm: sha1WithRSAEncryption
        6e:d7:7c:0b:91:75:9a:36:25:44:cf:9b:0c:6b:8f:a5:ed:f2:
        4f:cc:bd:9f:fd:43:dd:b4:27:0a:0d:61:4c:54:99:b0:4c:a9:
        52:3e:39:93:68:63:e1:15:fc:47:27:54:17:08:eb:b0:6a:61:
        61:d8:d5:d4:95:fc:1e:50:ba:6a:7f:7b:33:87:a9:b4:27:6b:
        f4:12:05:c3:90:ca:bf:98:ea:ae:d2:1e:26:bb:cd:23:cd:38:
        c8:f0:a1:03:9e:d7:e1:e4:d9:c0:ea:b0:31:5c:ba:7c:53:d1:
        5e:23:c2:e8:74:57:0b:fb:23:79:89:5a:88:74:96:37:7e:3a:
        06:8d:76:fe:e0:f0:d1:8e:60:a3:7d:0c:99:16:a0:a3:ec:f9:
        62:c0:7d:22:18:33:16:b6:a8:31:39:07:6e:8f:d7:3f:5c:c4:
        44:53:c6:1c:09:1a:f7:f6:27:3e:d2:73:ce:e9:37:ca:86:8a:
        58:cc:47:0b:5c:c9:58:12:92:88:4e:6b:13:f9:b4:44:db:9c:
        e3:f2:0a:61:8e:f8:49:59:44:35:ba:7d:b8:eb:6c:ea:72:e3:
        cf:39:12:fc:df:08:af:b5:67:91:08:06:f6:2c:69:e9:de:b6:
        a4:95:0a:30:72:bc:0e:f4:72:ab:0b:bc:68:ad:90:cf:c7:2d:
        71:6e:4f:9f
-----BEGIN CERTIFICATE REQUEST-----
MIIC3DCCAcQCAQAwgZYxCzAJBgNVBAYTAlVTMQswCQYDVQQIEwJDQTESMBAGA1UE
BxMJUGFsbyBBbHRvMRUwEwYDVQQKEwxPcGVuIHZTd2l0Y2gxHzAdBgNVBAsTFk9w
ZW4gdlN3aXRjaCBjZXJ0aWZpZXIxLjAsBgNVBAMTJU9wZW4gdlN3aXRjaCBjZXJ0
aWZpY2F0ZSBmb3IgdGVzdHBraTIwggEiMA0GCSqGSIb3DQEBAQUAA4IBDwAwggEK
AoIBAQCwCpce2Eh2VzLmTdeEhnrYDLekE5wjvNUBlBCB91+3cLoehcZccsrMKtX+
zJQLVF6uQP3ZwcyLWH6Hc16smBfyk7TN190SWbeOMdhjyXoUJ/ZnZMuPsdTBPL4w
4gge4tsSmyNTn2tGmwhGgG+J9XeIuOBIib4OR8VeZCh+w/MQy+KVIGqBehTjj+i4
0/kxspgMpl6f6iWJNCLy/KFdKy0KQIV6/09eWlFy8rgDF9vSPkB/G2vxreiu0zPU
rZwF1LEfUx1FGFAxKIhWk6f5ss2Q1ZHcFKkzLQuMdH2UHr5Y1/4ebaWlO+Jm8Ab5
2VwsZvt7hTgTZf84uhtZ9AigSQM/AgMBAAGgADANBgkqhkiG9w0BAQUFAAOCAQEA
btd8C5F1mjYlRM+bDGuPpe3yT8y9n/1D3bQnCg1hTFSZsEypUj45k2hj4RX8RydU
FwjrsGphYdjV1JX8HlC6an97M4eptCdr9BIFw5DKv5jqrtIeJrvNI804yPChA57X
4eTZwOqwMVy6fFPRXiPC6HRXC/sjeYlaiHSWN346Bo12/uDw0Y5go30MmRago+z5
YsB9IhgzFraoMTkHbo/XP1zERFPGHAka9/YnPtJzzuk3yoaKWMxHC1zJWBKSiE5r
E/m0RNuc4/IKYY74SVlENbp9uOts6nLjzzkS/N8Ir7VnkQgG9ixp6d62pJUKMHK8
DvRyqwu8aK2Qz8ctcW5Pnw==
-----END CERTIFICATE REQUEST-----
