Certificate:
    Data:
        Version: 1 (0x0)
        Serial Number: 3 (0x3)
        Signature Algorithm: md5WithRSAEncryption
        Issuer: C=US, ST=CA, O=Open vSwitch, OU=switchca, CN=OVS switchca CA Certificate (2010 Jan 06 17:08:30)
        Validity
            Not Before: Jan 11 20:06:58 2010 GMT
            Not After : Jan 11 20:06:58 2011 GMT
        Subject: C=US, ST=CA, O=Open vSwitch, OU=Open vSwitch certifier, CN=Open vSwitch certificate for testpki2
        Subject Public Key Info:
            Public Key Algorithm: rsaEncryption
            RSA Public Key: (2048 bit)
                Modulus (2048 bit):
                    00:b0:0a:97:1e:d8:48:76:57:32:e6:4d:d7:84:86:
                    7a:d8:0c:b7:a4:13:9c:23:bc:d5:01:94:10:81:f7:
                    5f:b7:70:ba:1e:85:c6:5c:72:ca:cc:2a:d5:fe:cc:
                    94:0b:54:5e:ae:40:fd:d9:c1:cc:8b:58:7e:87:73:
                    5e:ac:98:17:f2:93:b4:cd:d7:dd:12:59:b7:8e:31:
                    d8:63:c9:7a:14:27:f6:67:64:cb:8f:b1:d4:c1:3c:
                    be:30:e2:08:1e:e2:db:12:9b:23:53:9f:6b:46:9b:
                    08:46:80:6f:89:f5:77:88:b8:e0:48:89:be:0e:47:
                    c5:5e:64:28:7e:c3:f3:10:cb:e2:95:20:6a:81:7a:
                    14:e3:8f:e8:b8:d3:f9:31:b2:98:0c:a6:5e:9f:ea:
                    25:89:34:22:f2:fc:a1:5d:2b:2d:0a:40:85:7a:ff:
                    4f:5e:5a:51:72:f2:b8:03:17:db:d2:3e:40:7f:1b:
                    6b:f1:ad:e8:ae:d3:33:d4:ad:9c:05:d4:b1:1f:53:
                    1d:45:18:50:31:28:88:56:93:a7:f9:b2:cd:90:d5:
                    91:dc:14:a9:33:2d:0b:8c:74:7d:94:1e:be:58:d7:
                    fe:1e:6d:a5:a5:3b:e2:66:f0:06:f9:d9:5c:2c:66:
                    fb:7b:85:38:13:65:ff:38:ba:1b:59:f4:08:a0:49:
                    03:3f
                Exponent: 65537 (0x10001)
    Signature Algorithm: md5WithRSAEncryption
        6b:36:9d:38:52:14:c7:59:a4:3d:39:eb:7f:47:53:8a:f2:3e:
        42:b3:ba:f9:1b:9f:72:3f:3d:38:7f:c7:41:2d:e9:9d:ed:94:
        50:79:00:55:d0:52:8a:c4:2f:0b:74:36:05:d4:0a:d5:fd:a6:
        87:6e:3a:e2:12:c0:4e:0e:92:9f:98:8d:77:68:0a:bf:21:0d:
        78:20:03:0e:13:9f:49:cf:bd:c3:42:b2:69:a6:d0:67:e8:33:
        e0:f2:9e:1c:ff:04:2f:1b:fd:37:68:a9:23:54:a5:a2:83:9d:
        cb:ee:70:3a:c5:03:30:51:c6:90:01:39:f4:e1:29:be:53:2e:
        fd:71:90:b7:31:33:95:70:48:98:08:4b:2f:3b:33:11:ba:4c:
        ce:ed:f5:d8:f7:02:e7:da:f3:e9:56:9d:3a:e2:af:ec:61:e5:
        9c:06:8a:21:18:64:5c:b8:71:e5:4e:64:cc:2d:35:65:e7:cb:
        96:f3:8b:bc:51:79:42:92:70:e2:e4:28:70:58:44:81:45:83:
        e2:c3:2c:3b:5b:01:04:94:ce:25:40:8e:15:a3:b3:05:e4:68:
        17:4b:50:41:1a:58:51:75:81:0c:72:bd:4c:bc:b3:d1:dd:d9:
        aa:8f:8c:b4:bb:61:b7:55:c1:3f:74:2c:76:73:1e:25:cc:3d:
        5c:ac:d5:22
-----BEGIN CERTIFICATE-----
MIIDeTCCAmECAQMwDQYJKoZIhvcNAQEEBQAwgYExCzAJBgNVBAYTAlVTMQswCQYD
VQQIEwJDQTEVMBMGA1UEChMMT3BlbiB2U3dpdGNoMREwDwYDVQQLEwhzd2l0Y2hj
YTE7MDkGA1UEAxMyT1ZTIHN3aXRjaGNhIENBIENlcnRpZmljYXRlICgyMDEwIEph
biAwNiAxNzowODozMCkwHhcNMTAwMTExMjAwNjU4WhcNMTEwMTExMjAwNjU4WjCB
gjELMAkGA1UEBhMCVVMxCzAJBgNVBAgTAkNBMRUwEwYDVQQKEwxPcGVuIHZTd2l0
Y2gxHzAdBgNVBAsTFk9wZW4gdlN3aXRjaCBjZXJ0aWZpZXIxLjAsBgNVBAMTJU9w
ZW4gdlN3aXRjaCBjZXJ0aWZpY2F0ZSBmb3IgdGVzdHBraTIwggEiMA0GCSqGSIb3
DQEBAQUAA4IBDwAwggEKAoIBAQCwCpce2Eh2VzLmTdeEhnrYDLekE5wjvNUBlBCB
91+3cLoehcZccsrMKtX+zJQLVF6uQP3ZwcyLWH6Hc16smBfyk7TN190SWbeOMdhj
yXoUJ/ZnZMuPsdTBPL4w4gge4tsSmyNTn2tGmwhGgG+J9XeIuOBIib4OR8VeZCh+
w/MQy+KVIGqBehTjj+i40/kxspgMpl6f6iWJNCLy/KFdKy0KQIV6/09eWlFy8rgD
F9vSPkB/G2vxreiu0zPUrZwF1LEfUx1FGFAxKIhWk6f5ss2Q1ZHcFKkzLQuMdH2U
Hr5Y1/4ebaWlO+Jm8Ab52VwsZvt7hTgTZf84uhtZ9AigSQM/AgMBAAEwDQYJKoZI
hvcNAQEEBQADggEBAGs2nThSFMdZpD05639HU4ryPkKzuvkbn3I/PTh/x0Et6Z3t
lFB5AFXQUorELwt0NgXUCtX9poduOuISwE4Okp+YjXdoCr8hDXggAw4Tn0nPvcNC
smmm0GfoM+Dynhz/BC8b/TdoqSNUpaKDncvucDrFAzBRxpABOfThKb5TLv1xkLcx
M5VwSJgISy87MxG6TM7t9dj3Aufa8+lWnTrir+xh5ZwGiiEYZFy4ceVOZMwtNWXn
y5bzi7xReUKScOLkKHBYRIFFg+LDLDtbAQSUziVAjhWjswXkaBdLUEEaWFF1gQxy
vUy8s9Hd2aqPjLS7YbdVwT90LHZzHiXMPVys1SI=
-----END CERTIFICATE-----
