Certificate Request:
    Data:
        Version: 0 (0x0)
        Subject: C=US, ST=CA, L=Palo Alto, O=Open vSwitch, OU=Open vSwitch certifier, CN=Open vSwitch certificate for testpki
        Subject Public Key Info:
            Public Key Algorithm: rsaEncryption
            RSA Public Key: (2048 bit)
                Modulus (2048 bit):
                    00:ac:3f:c6:b1:ef:a3:e3:68:98:2c:91:a1:3a:21:
                    02:38:87:5b:75:7a:1c:17:c9:b0:64:a9:f7:80:17:
                    08:0f:b5:25:b4:46:80:6b:7e:92:ab:f8:93:05:17:
                    77:e4:12:86:eb:54:5d:a7:a0:45:70:16:5e:d7:4f:
                    6b:7c:9f:fe:83:a4:c1:62:83:33:71:6f:4f:4e:68:
                    84:a6:92:a5:77:8f:ad:cd:ee:bf:61:72:24:c0:64:
                    df:73:98:de:37:6b:b8:4d:78:f4:ba:06:95:64:ef:
                    82:b1:2f:71:01:44:ca:3c:de:fa:32:28:b6:ea:72:
                    7b:4d:d6:a0:fb:4b:73:de:a9:7f:25:ad:20:02:3d:
                    5f:7f:7f:8e:91:34:97:0a:10:96:be:3d:ee:37:5b:
                    a9:91:9e:7f:d5:ac:7b:e3:56:47:a4:14:15:dd:48:
                    ce:32:6f:c4:83:09:07:31:bb:34:77:4d:f7:12:70:
                    86:b8:b2:64:16:3b:ea:d2:72:e0:73:6b:6f:ce:59:
                    cf:56:6d:a8:94:3c:10:d7:47:7e:b2:91:9d:c7:65:
                    23:8a:b1:ca:9c:15:36:c5:d9:db:b1:e7:b8:1f:09:
                    20:1d:da:97:de:93:7c:e2:5d:94:ea:38:d8:ce:60:
                    c9:9e:43:da:6d:9d:c9:d2:a0:e9:6d:5a:9b:57:53:
                    86:7d
                Exponent: 65537 (0x10001)
        Attributes:
            a0:00
    Signature Algorithm: sha1WithRSAEncryption
        21:46:4c:7a:a9:da:58:cf:ee:d3:0a:81:ee:cd:bf:73:cf:05:
        93:2b:ef:f5:c7:7d:5e:96:a5:82:d2:62:34:26:8f:1e:f6:db:
        6f:0e:05:39:a5:3c:df:bb:51:02:2f:bc:5b:a8:a0:a5:5e:ce:
        e4:55:21:73:92:1d:bf:53:a4:f5:dc:7e:0e:f8:b1:05:57:3d:
        0c:04:5e:a6:35:c6:ae:81:59:6c:28:c5:19:4b:8c:da:dd:1e:
        97:51:bf:8b:f8:21:dc:c9:23:07:7a:66:66:fc:e2:b6:c6:e7:
        f3:b4:e4:3e:7e:be:72:3e:3a:65:98:f1:6c:4f:79:8a:3c:11:
        59:3d:9f:28:c8:80:eb:9d:e3:1d:6c:4e:b7:59:4e:48:b9:f8:
        87:cf:35:13:f8:15:d3:6f:fb:1c:89:6f:ec:2c:24:5c:7b:9f:
        fa:f0:a9:61:7b:4d:ab:40:84:dc:f8:5a:13:13:7a:b2:f4:09:
        36:95:76:1d:c8:d8:33:eb:67:c8:c9:a9:de:98:9a:77:33:46:
        83:37:19:60:d0:38:6f:dd:39:14:d7:a0:74:40:91:1f:60:bc:
        0b:f8:ca:81:7d:88:67:c7:89:cf:4c:c5:95:65:66:f5:c2:98:
        29:77:a2:93:b6:37:55:cc:f4:85:01:58:30:30:54:9a:c4:57:
        35:e4:21:bd
-----BEGIN CERTIFICATE REQUEST-----
MIIC2zCCAcMCAQAwgZUxCzAJBgNVBAYTAlVTMQswCQYDVQQIEwJDQTESMBAGA1UE
BxMJUGFsbyBBbHRvMRUwEwYDVQQKEwxPcGVuIHZTd2l0Y2gxHzAdBgNVBAsTFk9w
ZW4gdlN3aXRjaCBjZXJ0aWZpZXIxLTArBgNVBAMTJE9wZW4gdlN3aXRjaCBjZXJ0
aWZpY2F0ZSBmb3IgdGVzdHBraTCCASIwDQYJKoZIhvcNAQEBBQADggEPADCCAQoC
ggEBAKw/xrHvo+NomCyRoTohAjiHW3V6HBfJsGSp94AXCA+1JbRGgGt+kqv4kwUX
d+QShutUXaegRXAWXtdPa3yf/oOkwWKDM3FvT05ohKaSpXePrc3uv2FyJMBk33OY
3jdruE149LoGlWTvgrEvcQFEyjze+jIotupye03WoPtLc96pfyWtIAI9X39/jpE0
lwoQlr497jdbqZGef9Wse+NWR6QUFd1IzjJvxIMJBzG7NHdN9xJwhriyZBY76tJy
4HNrb85Zz1ZtqJQ8ENdHfrKRncdlI4qxypwVNsXZ27HnuB8JIB3al96TfOJdlOo4
2M5gyZ5D2m2dydKg6W1am1dThn0CAwEAAaAAMA0GCSqGSIb3DQEBBQUAA4IBAQAh
Rkx6qdpYz+7TCoHuzb9zzwWTK+/1x31elqWC0mI0Jo8e9ttvDgU5pTzfu1ECL7xb
qKClXs7kVSFzkh2/U6T13H4O+LEFVz0MBF6mNcaugVlsKMUZS4za3R6XUb+L+CHc
ySMHemZm/OK2xufztOQ+fr5yPjplmPFsT3mKPBFZPZ8oyIDrneMdbE63WU5IufiH
zzUT+BXTb/sciW/sLCRce5/68Klhe02rQITc+FoTE3qy9Ak2lXYdyNgz62fIyane
mJp3M0aDNxlg0Dhv3TkU16B0QJEfYLwL+MqBfYhnx4nPTMWVZWb1wpgpd6KTtjdV
zPSFAVgwMFSaxFc15CG9
-----END CERTIFICATE REQUEST-----
